; Function Attrs: nounwind uwtable
define ptr @l___private_Init_Omega_Constraint_0__Lean_Omega_tidy_x3f_match__1_splitter___rarg(ptr noundef %0, ptr noundef %1, ptr noundef %2) local_unnamed_addr #1 {
  %4 = ptrtoint ptr %0 to i64
  %5 = and i64 %4, 1
  %.not.i26 = icmp eq i64 %5, 0
  br i1 %.not.i26, label %9, label %6

6:                                                ; preds = %3
  %7 = lshr i64 %4, 1
  %8 = trunc i64 %7 to i32
  br label %lean_obj_tag.exit

9:                                                ; preds = %3
  %10 = getelementptr i8, ptr %0, i64 4
  %.val.i = load i32, ptr %10, align 4
  %11 = lshr i32 %.val.i, 24
  br label %lean_obj_tag.exit

lean_obj_tag.exit:                                ; preds = %6, %9
  %.0.i = phi i32 [ %8, %6 ], [ %11, %9 ]
  %12 = icmp eq i32 %.0.i, 0
  br i1 %12, label %13, label %31

13:                                               ; preds = %lean_obj_tag.exit
  %14 = ptrtoint ptr %2 to i64
  %15 = and i64 %14, 1
  %.not41 = icmp eq i64 %15, 0
  br i1 %.not41, label %16, label %lean_dec.exit18

16:                                               ; preds = %13
  %17 = load i32, ptr %2, align 4, !tbaa !6
  %18 = icmp sgt i32 %17, 1
  br i1 %18, label %19, label %21, !prof !5

19:                                               ; preds = %16
  %20 = add nsw i32 %17, -1
  store i32 %20, ptr %2, align 4, !tbaa !6
  br label %lean_dec.exit18

21:                                               ; preds = %16
  %.not.i = icmp eq i32 %17, 0
  br i1 %.not.i, label %lean_dec.exit18, label %22

22:                                               ; preds = %21
  tail call void @lean_dec_ref_cold(ptr noundef nonnull %2) #4
  br label %lean_dec.exit18

lean_dec.exit18:                                  ; preds = %22, %21, %19, %13
  %23 = ptrtoint ptr %1 to i64
  %24 = and i64 %23, 1
  %.not42 = icmp eq i64 %24, 0
  br i1 %.not42, label %25, label %lean_inc.exit21

25:                                               ; preds = %lean_dec.exit18
  %.val.i27 = load i32, ptr %1, align 4, !tbaa !6
  %26 = icmp sgt i32 %.val.i27, 0
  br i1 %26, label %27, label %29, !prof !5

27:                                               ; preds = %25
  %28 = add nuw i32 %.val.i27, 1
  store i32 %28, ptr %1, align 4, !tbaa !6
  br label %lean_inc.exit21

29:                                               ; preds = %25
  %.not.i28 = icmp eq i32 %.val.i27, 0
  br i1 %.not.i28, label %lean_inc.exit21, label %30

30:                                               ; preds = %29
  tail call void @lean_inc_ref_cold(ptr noundef nonnull %1) #4
  br label %lean_inc.exit21

31:                                               ; preds = %lean_obj_tag.exit
  %32 = getelementptr inbounds nuw i8, ptr %0, i64 8
  %33 = load ptr, ptr %32, align 8, !tbaa !11
  %34 = ptrtoint ptr %33 to i64
  %35 = and i64 %34, 1
  %.not = icmp eq i64 %35, 0
  br i1 %.not, label %36, label %lean_inc.exit20

36:                                               ; preds = %31
  %.val.i29 = load i32, ptr %33, align 4, !tbaa !6
  %37 = icmp sgt i32 %.val.i29, 0
  br i1 %37, label %38, label %40, !prof !5

38:                                               ; preds = %36
  %39 = add nuw i32 %.val.i29, 1
  store i32 %39, ptr %33, align 4, !tbaa !6
  br label %lean_inc.exit20

40:                                               ; preds = %36
  %.not.i30 = icmp eq i32 %.val.i29, 0
  br i1 %.not.i30, label %lean_inc.exit20, label %41

41:                                               ; preds = %40
  tail call void @lean_inc_ref_cold(ptr noundef nonnull %33) #4
  br label %lean_inc.exit20

lean_inc.exit20:                                  ; preds = %41, %40, %38, %31
  br i1 %.not.i26, label %42, label %lean_dec.exit17

42:                                               ; preds = %lean_inc.exit20
  %43 = load i32, ptr %0, align 4, !tbaa !6
  %44 = icmp sgt i32 %43, 1
  br i1 %44, label %45, label %47, !prof !5

45:                                               ; preds = %42
  %46 = add nsw i32 %43, -1
  store i32 %46, ptr %0, align 4, !tbaa !6
  br label %lean_dec.exit17

47:                                               ; preds = %42
  %.not.i22 = icmp eq i32 %43, 0
  br i1 %.not.i22, label %lean_dec.exit17, label %48

48:                                               ; preds = %47
  tail call void @lean_dec_ref_cold(ptr noundef nonnull %0) #4
  br label %lean_dec.exit17

lean_dec.exit17:                                  ; preds = %48, %47, %45, %lean_inc.exit20
  %49 = getelementptr inbounds nuw i8, ptr %33, i64 8
  %50 = load ptr, ptr %49, align 8, !tbaa !11
  %51 = ptrtoint ptr %50 to i64
  %52 = and i64 %51, 1
  %.not39 = icmp eq i64 %52, 0
  br i1 %.not39, label %53, label %lean_inc.exit19

53:                                               ; preds = %lean_dec.exit17
  %.val.i32 = load i32, ptr %50, align 4, !tbaa !6
  %54 = icmp sgt i32 %.val.i32, 0
  br i1 %54, label %55, label %57, !prof !5

55:                                               ; preds = %53
  %56 = add nuw i32 %.val.i32, 1
  store i32 %56, ptr %50, align 4, !tbaa !6
  br label %lean_inc.exit19

57:                                               ; preds = %53
  %.not.i33 = icmp eq i32 %.val.i32, 0
  br i1 %.not.i33, label %lean_inc.exit19, label %58

58:                                               ; preds = %57
  tail call void @lean_inc_ref_cold(ptr noundef nonnull %50) #4
  br label %lean_inc.exit19

lean_inc.exit19:                                  ; preds = %58, %57, %55, %lean_dec.exit17
  %59 = getelementptr inbounds nuw i8, ptr %33, i64 16
  %60 = load ptr, ptr %59, align 8, !tbaa !11
  %61 = ptrtoint ptr %60 to i64
  %62 = and i64 %61, 1
  %.not40 = icmp eq i64 %62, 0
  br i1 %.not40, label %63, label %lean_inc.exit

63:                                               ; preds = %lean_inc.exit19
  %.val.i35 = load i32, ptr %60, align 4, !tbaa !6
  %64 = icmp sgt i32 %.val.i35, 0
  br i1 %64, label %65, label %67, !prof !5

65:                                               ; preds = %63
  %66 = add nuw i32 %.val.i35, 1
  store i32 %66, ptr %60, align 4, !tbaa !6
  br label %lean_inc.exit

67:                                               ; preds = %63
  %.not.i36 = icmp eq i32 %.val.i35, 0
  br i1 %.not.i36, label %lean_inc.exit, label %68

68:                                               ; preds = %67
  tail call void @lean_inc_ref_cold(ptr noundef nonnull %60) #4
  br label %lean_inc.exit

lean_inc.exit:                                    ; preds = %68, %67, %65, %lean_inc.exit19
  br i1 %.not, label %69, label %lean_dec.exit

69:                                               ; preds = %lean_inc.exit
  %70 = load i32, ptr %33, align 4, !tbaa !6
  %71 = icmp sgt i32 %70, 1
  br i1 %71, label %72, label %74, !prof !5

72:                                               ; preds = %69
  %73 = add nsw i32 %70, -1
  store i32 %73, ptr %33, align 4, !tbaa !6
  br label %lean_dec.exit

74:                                               ; preds = %69
  %.not.i24 = icmp eq i32 %70, 0
  br i1 %.not.i24, label %lean_dec.exit, label %75

75:                                               ; preds = %74
  tail call void @lean_dec_ref_cold(ptr noundef nonnull %33) #4
  br label %lean_dec.exit

lean_dec.exit:                                    ; preds = %75, %74, %72, %lean_inc.exit
  %76 = tail call ptr @lean_apply_2(ptr noundef %2, ptr noundef %50, ptr noundef %60) #4
  br label %lean_inc.exit21

lean_inc.exit21:                                  ; preds = %lean_dec.exit18, %27, %29, %30, %lean_dec.exit
  %.0 = phi ptr [ %76, %lean_dec.exit ], [ %1, %30 ], [ %1, %29 ], [ %1, %27 ], [ %1, %lean_dec.exit18 ]
  ret ptr %.0
}